target datalayout = "e-m:e-p270:32:32-p271:32:32-p272:64:64-i64:64-i128:128-f80:128-n8:16:32:64-S128"
target triple = "x86_64-pc-linux-gnu"

%struct.tvbuff = type { ptr, ptr, i8, i32, ptr, ptr, i32, i32, i32, i32 }

@.str = private unnamed_addr constant [29 x i8] c"%s:%u: failed assertion \22%s\22\00", align 1
@.str.1 = private unnamed_addr constant [14 x i8] c"epan/tvbuff.c\00", align 1
@.str.5 = private unnamed_addr constant [24 x i8] c"tvb && tvb->initialized\00", align 1

; Function Attrs: null_pointer_is_valid sspstrong uwtable
define zeroext i8 @tvb_get_uint8(ptr noundef %0, i32 noundef %1) #0 {
  %3 = alloca ptr, align 8
  %4 = alloca i32, align 4
  %5 = alloca ptr, align 8
  store ptr %0, ptr %3, align 8
  store i32 %1, ptr %4, align 4
  call void @llvm.lifetime.start.p0(i64 8, ptr %5) #16
  %6 = load ptr, ptr %3, align 8
  %7 = load i32, ptr %4, align 4
  %8 = call ptr @fast_ensure_contiguous(ptr noundef %6, i32 noundef %7, i32 noundef 1)
  store ptr %8, ptr %5, align 8
  %9 = load ptr, ptr %5, align 8
  %10 = load i8, ptr %9, align 1
  call void @llvm.lifetime.end.p0(i64 8, ptr %5) #16
  ret i8 %10
}

; Function Attrs: null_pointer_is_valid sspstrong uwtable
define i32 @tvb_skip_wsp_return(ptr noundef %0, i32 noundef %1) #0 {
  %3 = alloca ptr, align 8
  %4 = alloca i32, align 4
  %5 = alloca i32, align 4
  %6 = alloca i8, align 1
  store ptr %0, ptr %3, align 8
  store i32 %1, ptr %4, align 4
  call void @llvm.lifetime.start.p0(i64 4, ptr %5) #16
  call void @llvm.lifetime.start.p0(i64 1, ptr %6) #16
  %7 = load ptr, ptr %3, align 8
  %8 = icmp ne ptr %7, null
  br i1 %8, label %9, label %15

9:                                                ; preds = %2
  %10 = load ptr, ptr %3, align 8
  %11 = getelementptr inbounds nuw %struct.tvbuff, ptr %10, i32 0, i32 2
  %12 = load i8, ptr %11, align 8, !range !9, !noundef !10
  %13 = trunc i8 %12 to i1
  br i1 %13, label %14, label %15

14:                                               ; preds = %9
  br label %17

15:                                               ; preds = %9, %2
  call void (ptr, ...) @proto_report_dissector_bug(ptr noundef @.str, ptr noundef @.str.1, i32 noundef 4492, ptr noundef @.str.5) #18
  unreachable

16:                                               ; No predecessors!
  br label %17

17:                                               ; preds = %16, %14
  %18 = load i32, ptr %4, align 4
  store i32 %18, ptr %5, align 4
  br label %19

19:                                               ; preds = %45, %17
  %20 = load i32, ptr %5, align 4
  %21 = icmp sgt i32 %20, 0
  br i1 %21, label %22, label %42

22:                                               ; preds = %19
  %23 = load ptr, ptr %3, align 8
  %24 = load i32, ptr %5, align 4
  %25 = call zeroext i8 @tvb_get_uint8(ptr noundef %23, i32 noundef %24)
  store i8 %25, ptr %6, align 1
  %26 = zext i8 %25 to i32
  %27 = icmp eq i32 %26, 32
  br i1 %27, label %40, label %28

28:                                               ; preds = %22
  %29 = load i8, ptr %6, align 1
  %30 = zext i8 %29 to i32
  %31 = icmp eq i32 %30, 9
  br i1 %31, label %40, label %32

32:                                               ; preds = %28
  %33 = load i8, ptr %6, align 1
  %34 = zext i8 %33 to i32
  %35 = icmp eq i32 %34, 10
  br i1 %35, label %40, label %36

36:                                               ; preds = %32
  %37 = load i8, ptr %6, align 1
  %38 = zext i8 %37 to i32
  %39 = icmp eq i32 %38, 13
  br label %40

40:                                               ; preds = %36, %32, %28, %22
  %41 = phi i1 [ true, %32 ], [ true, %28 ], [ true, %22 ], [ %39, %36 ]
  br label %42

42:                                               ; preds = %40, %19
  %43 = phi i1 [ false, %19 ], [ %41, %40 ]
  br i1 %43, label %44, label %48

44:                                               ; preds = %42
  br label %45

45:                                               ; preds = %44
  %46 = load i32, ptr %5, align 4
  %47 = add i32 %46, -1
  store i32 %47, ptr %5, align 4
  br label %19, !llvm.loop !32

48:                                               ; preds = %42
  %49 = load i32, ptr %5, align 4
  %50 = add i32 %49, 1
  store i32 %50, ptr %5, align 4
  %51 = load i32, ptr %5, align 4
  call void @llvm.lifetime.end.p0(i64 1, ptr %6) #16
  call void @llvm.lifetime.end.p0(i64 4, ptr %5) #16
  ret i32 %51
}