; Function Attrs: null_pointer_is_valid sspstrong uwtable
define noundef i32 @tvb_skip_wsp_return(ptr noundef %0, i32 noundef %1) local_unnamed_addr #0 {
  %.not = icmp eq ptr %0, null
  br i1 %.not, label %8, label %3

3:                                                ; preds = %2
  %4 = getelementptr inbounds nuw i8, ptr %0, i64 16
  %5 = load i8, ptr %4, align 8, !range !9, !noundef !10
  %6 = trunc nuw i8 %5 to i1
  br i1 %6, label %.preheader, label %8

.preheader:                                       ; preds = %3
  %7 = icmp sgt i32 %1, 0
  br i1 %7, label %.lr.ph, label %.critedge

8:                                                ; preds = %3, %2
  tail call void (ptr, ...) @proto_report_dissector_bug(ptr noundef nonnull @.str, ptr noundef nonnull @.str.1, i32 noundef 4492, ptr noundef nonnull @.str.5) #18
  unreachable

.lr.ph:                                           ; preds = %.preheader, %.critedge7
  %.022 = phi i32 [ %11, %.critedge7 ], [ %1, %.preheader ]
  %9 = tail call fastcc ptr @fast_ensure_contiguous(ptr noundef nonnull %0, i32 noundef %.022, i32 noundef 1)
  %10 = load i8, ptr %9, align 1
  switch i8 %10, label %.critedge [
    i8 32, label %.critedge7
    i8 13, label %.critedge7
    i8 10, label %.critedge7
    i8 9, label %.critedge7
  ]

.critedge7:                                       ; preds = %.lr.ph, %.lr.ph, %.lr.ph, %.lr.ph
  %11 = add nsw i32 %.022, -1
  %12 = icmp sgt i32 %.022, 1
  br i1 %12, label %.lr.ph, label %.critedge, !llvm.loop !34

.critedge:                                        ; preds = %.critedge7, %.lr.ph, %.preheader
  %.0.lcssa = phi i32 [ %1, %.preheader ], [ %.022, %.lr.ph ], [ 0, %.critedge7 ]
  %13 = add i32 %.0.lcssa, 1
  ret i32 %13
}